; Function Attrs: mustprogress uwtable
define hidden void @_ZN2qe15prop_mbi_plugin5blockERK10ref_vectorI4expr11ast_managerE(ptr noundef nonnull readonly align 8 captures(none) dereferenceable(104) %0, ptr noundef nonnull readonly align 8 captures(none) dereferenceable(16) %1) unnamed_addr #3 align 2 personality ptr @__gxx_personality_v0 {
  %3 = alloca %class.obj_ref, align 8
  %4 = alloca %class.obj_ref, align 8
  %5 = alloca %class.obj_ref, align 8
  call void @llvm.lifetime.start.p0(i64 16, ptr nonnull %3) #25
  call void @llvm.lifetime.start.p0(i64 16, ptr nonnull %4) #25
  call void @llvm.lifetime.start.p0(i64 16, ptr nonnull %5) #25
  tail call void @llvm.experimental.noalias.scope.decl(metadata !208)
  %6 = load ptr, ptr %1, align 8, !tbaa !119, !noalias !208
  %7 = getelementptr inbounds nuw i8, ptr %1, i64 8
  %8 = load ptr, ptr %7, align 8, !tbaa !106, !noalias !208
  %9 = icmp eq ptr %8, null
  br i1 %9, label %_ZNK15ref_vector_coreI4expr19ref_manager_wrapperIS0_11ast_managerEE4sizeEv.exit.i, label %10

10:                                               ; preds = %2
  %11 = getelementptr inbounds i8, ptr %8, i64 -4
  %12 = load i32, ptr %11, align 4, !tbaa !69, !noalias !208
  br label %_ZNK15ref_vector_coreI4expr19ref_manager_wrapperIS0_11ast_managerEE4sizeEv.exit.i

_ZNK15ref_vector_coreI4expr19ref_manager_wrapperIS0_11ast_managerEE4sizeEv.exit.i: ; preds = %10, %2
  %.0.i.i.i = phi i32 [ %12, %10 ], [ 0, %2 ]
  %13 = tail call noundef ptr @_Z6mk_andR11ast_managerjPKP4expr(ptr noundef nonnull align 8 dereferenceable(976) %6, i32 noundef %.0.i.i.i, ptr noundef %8), !noalias !208
  %14 = load ptr, ptr %1, align 8, !tbaa !119, !noalias !208
  store ptr %13, ptr %5, align 8, !tbaa !99, !alias.scope !208
  %15 = getelementptr inbounds nuw i8, ptr %5, i64 8
  store ptr %14, ptr %15, align 8, !tbaa !101, !alias.scope !208
  %.not.i.i.i = icmp eq ptr %13, null
  br i1 %.not.i.i.i, label %_Z6mk_andRK10ref_vectorI4expr11ast_managerE.exit, label %_ZN11ast_manager7inc_refEP3ast.exit.i.i.i

_ZN11ast_manager7inc_refEP3ast.exit.i.i.i:        ; preds = %_ZNK15ref_vector_coreI4expr19ref_manager_wrapperIS0_11ast_managerEE4sizeEv.exit.i
  %16 = getelementptr inbounds nuw i8, ptr %13, i64 8
  %17 = load i32, ptr %16, align 4, !tbaa !22, !noalias !208
  %18 = add i32 %17, 1
  store i32 %18, ptr %16, align 4, !tbaa !22, !noalias !208
  br label %_Z6mk_andRK10ref_vectorI4expr11ast_managerE.exit

_Z6mk_andRK10ref_vectorI4expr11ast_managerE.exit: ; preds = %_ZNK15ref_vector_coreI4expr19ref_manager_wrapperIS0_11ast_managerEE4sizeEv.exit.i, %_ZN11ast_manager7inc_refEP3ast.exit.i.i.i
  invoke void @_Z6mk_notRK7obj_refI4expr11ast_managerE(ptr dead_on_unwind nonnull writable sret(%class.obj_ref) align 8 %4, ptr noundef nonnull align 8 dereferenceable(16) %5)
          to label %19 unwind label %57

19:                                               ; preds = %_Z6mk_andRK10ref_vectorI4expr11ast_managerE.exit
  %20 = load ptr, ptr %4, align 8, !tbaa !99
  %21 = getelementptr inbounds nuw i8, ptr %0, i64 8
  %22 = load ptr, ptr %21, align 8, !tbaa !92
  store ptr %20, ptr %3, align 8, !tbaa !99
  %23 = getelementptr inbounds nuw i8, ptr %3, i64 8
  store ptr %22, ptr %23, align 8, !tbaa !101
  %.not.i.i = icmp eq ptr %20, null
  br i1 %.not.i.i, label %_ZN7obj_refI4expr11ast_managerED2Ev.exit, label %24

24:                                               ; preds = %19
  %25 = getelementptr inbounds nuw i8, ptr %20, i64 8
  %26 = load i32, ptr %25, align 4, !tbaa !22
  %27 = icmp eq i32 %26, 0
  br i1 %27, label %28, label %_ZN7obj_refI4expr11ast_managerED2Ev.exit

28:                                               ; preds = %24
  %29 = getelementptr inbounds nuw i8, ptr %4, i64 8
  %30 = load ptr, ptr %29, align 8, !tbaa !102
  invoke void @_ZN11ast_manager11delete_nodeEP3ast(ptr noundef nonnull align 8 dereferenceable(976) %30, ptr noundef nonnull %20)
          to label %_ZN7obj_refI4expr11ast_managerED2Ev.exit unwind label %31

31:                                               ; preds = %28
  %32 = landingpad { ptr, i32 }
          catch ptr null
  %33 = extractvalue { ptr, i32 } %32, 0
  call void @__clang_call_terminate(ptr %33) #26
  unreachable

_ZN7obj_refI4expr11ast_managerED2Ev.exit:         ; preds = %19, %24, %28
  %34 = load ptr, ptr %5, align 8, !tbaa !99
  %.not.i.i9 = icmp eq ptr %34, null
  br i1 %.not.i.i9, label %_ZN7obj_refI4expr11ast_managerED2Ev.exit10, label %35

35:                                               ; preds = %_ZN7obj_refI4expr11ast_managerED2Ev.exit
  %36 = load ptr, ptr %15, align 8, !tbaa !102
  %37 = getelementptr inbounds nuw i8, ptr %34, i64 8
  %38 = load i32, ptr %37, align 4, !tbaa !22
  %39 = add i32 %38, -1
  store i32 %39, ptr %37, align 4, !tbaa !22
  %40 = icmp eq i32 %39, 0
  br i1 %40, label %41, label %_ZN7obj_refI4expr11ast_managerED2Ev.exit10

41:                                               ; preds = %35
  invoke void @_ZN11ast_manager11delete_nodeEP3ast(ptr noundef nonnull align 8 dereferenceable(976) %36, ptr noundef nonnull %34)
          to label %_ZN7obj_refI4expr11ast_managerED2Ev.exit10 unwind label %42

42:                                               ; preds = %41
  %43 = landingpad { ptr, i32 }
          catch ptr null
  %44 = extractvalue { ptr, i32 } %43, 0
  call void @__clang_call_terminate(ptr %44) #26
  unreachable

_ZN7obj_refI4expr11ast_managerED2Ev.exit10:       ; preds = %_ZN7obj_refI4expr11ast_managerED2Ev.exit, %35, %41
  call void @llvm.lifetime.end.p0(i64 16, ptr nonnull %5) #25
  call void @llvm.lifetime.end.p0(i64 16, ptr nonnull %4) #25
  %45 = getelementptr inbounds nuw i8, ptr %0, i64 96
  %46 = load ptr, ptr %45, align 8, !tbaa !121
  invoke void @_ZN6solver11assert_exprEP4expr(ptr noundef nonnull align 8 dereferenceable(96) %46, ptr noundef %20)
          to label %47 unwind label %59

47:                                               ; preds = %_ZN7obj_refI4expr11ast_managerED2Ev.exit10
  br i1 %.not.i.i, label %_ZN7obj_refI4expr11ast_managerED2Ev.exit12, label %48

48:                                               ; preds = %47
  %49 = getelementptr inbounds nuw i8, ptr %20, i64 8
  %50 = load i32, ptr %49, align 4, !tbaa !22
  %51 = add i32 %50, -1
  store i32 %51, ptr %49, align 4, !tbaa !22
  %52 = icmp eq i32 %51, 0
  br i1 %52, label %53, label %_ZN7obj_refI4expr11ast_managerED2Ev.exit12

53:                                               ; preds = %48
  invoke void @_ZN11ast_manager11delete_nodeEP3ast(ptr noundef nonnull align 8 dereferenceable(976) %22, ptr noundef nonnull %20)
          to label %_ZN7obj_refI4expr11ast_managerED2Ev.exit12 unwind label %54

54:                                               ; preds = %53
  %55 = landingpad { ptr, i32 }
          catch ptr null
  %56 = extractvalue { ptr, i32 } %55, 0
  call void @__clang_call_terminate(ptr %56) #26
  unreachable

_ZN7obj_refI4expr11ast_managerED2Ev.exit12:       ; preds = %47, %48, %53
  call void @llvm.lifetime.end.p0(i64 16, ptr nonnull %3) #25
  ret void

57:                                               ; preds = %_Z6mk_andRK10ref_vectorI4expr11ast_managerE.exit
  %58 = landingpad { ptr, i32 }
          cleanup
  call void @_ZN7obj_refI4expr11ast_managerED2Ev(ptr noundef nonnull align 8 dereferenceable(16) %5) #25
  call void @llvm.lifetime.end.p0(i64 16, ptr nonnull %5) #25
  call void @llvm.lifetime.end.p0(i64 16, ptr nonnull %4) #25
  br label %61

59:                                               ; preds = %_ZN7obj_refI4expr11ast_managerED2Ev.exit10
  %60 = landingpad { ptr, i32 }
          cleanup
  call void @_ZN7obj_refI4expr11ast_managerED2Ev(ptr noundef nonnull align 8 dereferenceable(16) %3) #25
  br label %61

61:                                               ; preds = %59, %57
  %.pn6 = phi { ptr, i32 } [ %60, %59 ], [ %58, %57 ]
  call void @llvm.lifetime.end.p0(i64 16, ptr nonnull %3) #25
  resume { ptr, i32 } %.pn6
}